; Function Attrs: mustprogress nounwind uwtable
define dso_local void @_ZN5clang13ASTDeclWriter16VisitBindingDeclEPNS_11BindingDeclE(ptr noundef nonnull align 8 dereferenceable(241) %0, ptr noundef nonnull %1) local_unnamed_addr #0 align 2 {
  tail call void @_ZN5clang13ASTDeclWriter14VisitNamedDeclEPNS_9NamedDeclE(ptr noundef nonnull align 8 dereferenceable(241) %0, ptr noundef nonnull %1)
  %3 = getelementptr inbounds nuw i8, ptr %1, i64 48
  %.sroa.0.0.copyload.i.i = load i64, ptr %3, align 8
  %4 = getelementptr inbounds nuw i8, ptr %0, i64 24
  %5 = load ptr, ptr %4, align 8
  %6 = getelementptr inbounds nuw i8, ptr %0, i64 32
  %7 = load ptr, ptr %6, align 8
  tail call void @_ZN5clang9ASTWriter10AddTypeRefENS_8QualTypeERN4llvm15SmallVectorImplImEE(ptr noundef nonnull align 8 dereferenceable(3340) %5, i64 %.sroa.0.0.copyload.i.i, ptr noundef nonnull align 8 dereferenceable(16) %7) #19
  %8 = getelementptr inbounds nuw i8, ptr %1, i64 64
  %9 = load ptr, ptr %8, align 8
  %10 = getelementptr inbounds nuw i8, ptr %0, i64 40
  %11 = tail call noundef i64 @_ZNK4llvm15SmallVectorBaseIjE4sizeEv(ptr noundef nonnull align 8 dereferenceable(16) %10) #19
  %12 = add i64 %11, 1
  %13 = tail call noundef i64 @_ZNK4llvm15SmallVectorBaseIjE8capacityEv(ptr noundef nonnull align 8 dereferenceable(16) %10) #19
  %.not.i.i.i.i = icmp ugt i64 %12, %13
  br i1 %.not.i.i.i.i, label %14, label %_ZN5clang15ASTRecordWriter7AddStmtEPNS_4StmtE.exit

14:                                               ; preds = %2
  %15 = getelementptr inbounds nuw i8, ptr %0, i64 56
  tail call void @_ZN4llvm15SmallVectorBaseIjE8grow_podEPvmm(ptr noundef nonnull align 8 dereferenceable(16) %10, ptr noundef nonnull %15, i64 noundef %12, i64 noundef 8) #19
  br label %_ZN5clang15ASTRecordWriter7AddStmtEPNS_4StmtE.exit

_ZN5clang15ASTRecordWriter7AddStmtEPNS_4StmtE.exit: ; preds = %2, %14
  %16 = load ptr, ptr %10, align 8
  %17 = tail call noundef i64 @_ZNK4llvm15SmallVectorBaseIjE4sizeEv(ptr noundef nonnull align 8 dereferenceable(16) %10) #19
  %18 = getelementptr inbounds ptr, ptr %16, i64 %17
  %19 = ptrtoint ptr %9 to i64
  store i64 %19, ptr %18, align 1
  %20 = tail call noundef i64 @_ZNK4llvm15SmallVectorBaseIjE4sizeEv(ptr noundef nonnull align 8 dereferenceable(16) %10) #19
  %21 = add i64 %20, 1
  tail call void @_ZN4llvm15SmallVectorBaseIjE8set_sizeEm(ptr noundef nonnull align 8 dereferenceable(16) %10, i64 noundef %21) #19
  %22 = getelementptr inbounds nuw i8, ptr %0, i64 232
  store i32 76, ptr %22, align 8
  ret void
}